
led_on.elf:     file format elf32-littlearm


Disassembly of section .text:

08000000 <_stack+0x7f80000>:
 8000000:	20000c00 	andcs	r0, r0, r0, lsl #24
 8000004:	08000009 	stmdaeq	r0, {r0, r3}

08000008 <_start>:
 8000008:	f000 f800 	bl	800000c <led_loop>

0800000c <led_loop>:
 800000c:	4910      	ldr	r1, [pc, #64]	; (8000050 <delay_loop+0x6>)
 800000e:	2001      	movs	r0, #1
 8000010:	6008      	str	r0, [r1, #0]
 8000012:	4910      	ldr	r1, [pc, #64]	; (8000054 <delay_loop+0xa>)
 8000014:	2001      	movs	r0, #1
 8000016:	6008      	str	r0, [r1, #0]
 8000018:	f000 f816 	bl	8000048 <delay>
 800001c:	490d      	ldr	r1, [pc, #52]	; (8000054 <delay_loop+0xa>)
 800001e:	2000      	movs	r0, #0
 8000020:	6008      	str	r0, [r1, #0]
 8000022:	f000 f811 	bl	8000048 <delay>
 8000026:	490b      	ldr	r1, [pc, #44]	; (8000054 <delay_loop+0xa>)
 8000028:	2001      	movs	r0, #1
 800002a:	6008      	str	r0, [r1, #0]
 800002c:	f000 f80c 	bl	8000048 <delay>
 8000030:	4908      	ldr	r1, [pc, #32]	; (8000054 <delay_loop+0xa>)
 8000032:	2000      	movs	r0, #0
 8000034:	6008      	str	r0, [r1, #0]
 8000036:	f000 f807 	bl	8000048 <delay>
 800003a:	4906      	ldr	r1, [pc, #24]	; (8000054 <delay_loop+0xa>)
 800003c:	2001      	movs	r0, #1
 800003e:	6008      	str	r0, [r1, #0]
 8000040:	f000 f802 	bl	8000048 <delay>
 8000044:	e7e2      	b.n	800000c <led_loop>

08000046 <halt>:
 8000046:	e7fe      	b.n	8000046 <halt>

08000048 <delay>:
 8000048:	4a03      	ldr	r2, [pc, #12]	; (8000058 <delay_loop+0xe>)

0800004a <delay_loop>:
 800004a:	3a01      	subs	r2, #1
 800004c:	d1fd      	bne.n	800004a <delay_loop>
 800004e:	4770      	bx	lr
 8000050:	50000000 	andpl	r0, r0, r0
 8000054:	50000014 	andpl	r0, r0, r4, lsl r0
 8000058:	000f4240 	andeq	r4, pc, r0, asr #4
